(dp0
S'done'
p1
(dp2
S'1234'
p3
(lp4
(dp5
S'approver_policy'
p6
(dp7
S'msg'
p8
S'approver policy created'
p9
sS'status'
p10
S'pending'
p11
sS'type'
p12
g6
sS'corrid'
p13
S'1234'
p14
ssa(dp15
S'apply_result'
p16
(dp17
S'msg'
p18
S'New policy created'
p19
sS'status'
p20
S'done'
p21
sS'type'
p22
g16
sS'corrid'
p23
S'1234'
p24
ssasS'1235'
p25
(lp26
(dp27
S'applier'
p28
(dp29
S'msg'
p30
S'New policy created'
p31
sS'status'
p32
S'pending'
p33
sS'type'
p34
g28
sS'corrid'
p35
S'1235'
p36
ssa(dp37
S'new_policy'
p38
(dp39
S'msg'
p40
S'New policy created'
p41
sS'status'
p42
S'pending'
p43
sS'type'
p44
g38
sS'corrid'
p45
S'1235'
p46
ssa(dp47
S'new_policy'
p48
(dp49
S'msg'
p50
S'New policy created'
p51
sS'status'
p52
S'done'
p53
sS'type'
p54
g48
sS'corrid'
p55
S'1235'
p56
ssasS'1236'
p57
(lp58
(dp59
S'apply_result'
p60
(dp61
S'msg'
p62
S'New policy created'
p63
sS'status'
p64
S'pending'
p65
sS'type'
p66
g60
sS'corrid'
p67
S'1236'
p68
ssa(dp69
S'red_flag'
p70
(dp71
S'msg'
p72
S'New policy created'
p73
sS'status'
p74
S'done'
p75
sS'type'
p76
g70
sS'corrid'
p77
g57
ssasS'12134'
p78
(lp79
(dp80
S'new_policy'
p81
(dp82
S'msg'
p83
S'New policy created'
p84
sS'status'
p85
S'pending'
p86
sS'type'
p87
g81
sS'corrid'
p88
S'12134'
p89
ssa(dp90
S'approver_policy'
p91
(dp92
S'msg'
p93
S'approver policy created'
p94
sS'status'
p95
S'pending'
p96
sS'type'
p97
g91
sS'corrid'
p98
S'12134'
p99
ssa(dp100
S'apply_result'
p101
(dp102
S'msg'
p103
S'New policy created'
p104
sS'status'
p105
S'done'
p106
sS'type'
p107
g101
sS'corrid'
p108
g78
ssassS'pending'
p109
(dp110
S'1238'
p111
(lp112
(dp113
S'applier'
p114
(dp115
S'msg'
p116
S'New policy created'
p117
sS'status'
p118
S'pending'
p119
sS'type'
p120
g114
sS'corrid'
p121
g111
ssa(dp122
S'approver_policy'
p123
(dp124
S'msg'
p125
S'approver policy created'
p126
sS'status'
p127
S'pending'
p128
sS'type'
p129
g123
sS'corrid'
p130
S'1238'
p131
ssa(dp132
S'approver_policy'
p133
(dp134
S'msg'
p135
S'approver policy created'
p136
sS'status'
p137
S'pending'
p138
sS'type'
p139
g133
sS'corrid'
p140
S'1238'
p141
ssa(dp142
S'applier'
p143
(dp144
S'msg'
p145
S'New policy created'
p146
sS'status'
p147
S'pending'
p148
sS'type'
p149
g143
sS'corrid'
p150
S'1238'
p151
ssasS'1239'
p152
(lp153
(dp154
S'new_policy'
p155
(dp156
S'msg'
p157
S'New policy created'
p158
sS'status'
p159
S'pending'
p160
sS'type'
p161
g155
sS'corrid'
p162
g152
ssa(dp163
S'new_policy'
p164
(dp165
S'msg'
p166
S'New policy created'
p167
sS'status'
p168
S'pending'
p169
sS'type'
p170
g164
sS'corrid'
p171
S'1239'
p172
ssass.