(dp0
S'done'
p1
(dp2
S'1234'
p3
(lp4
(dp5
S'apply_result'
p6
(dp7
S'msg'
p8
S'New policy created'
p9
sS'status'
p10
S'done'
p11
sS'type'
p12
g6
sS'corrid'
p13
S'1234'
p14
ssasS'1235'
p15
(lp16
(dp17
S'new_policy'
p18
(dp19
S'msg'
p20
S'New policy created'
p21
sS'status'
p22
S'pending'
p23
sS'type'
p24
g18
sS'corrid'
p25
S'1235'
p26
ssa(dp27
S'applier'
p28
(dp29
S'msg'
p30
S'New policy created'
p31
sS'status'
p32
S'pending'
p33
sS'type'
p34
g28
sS'corrid'
p35
S'1235'
p36
ssa(dp37
S'new_policy'
p38
(dp39
S'msg'
p40
S'New policy created'
p41
sS'status'
p42
S'done'
p43
sS'type'
p44
g38
sS'corrid'
p45
S'1235'
p46
ssasS'1236'
p47
(lp48
(dp49
S'red_flag'
p50
(dp51
S'msg'
p52
S'New policy created'
p53
sS'status'
p54
S'done'
p55
sS'type'
p56
g50
sS'corrid'
p57
S'1236'
p58
ssasS'1237'
p59
(lp60
(dp61
S'new_policy'
p62
(dp63
S'msg'
p64
S'New policy created'
p65
sS'status'
p66
S'done'
p67
sS'type'
p68
g62
sS'corrid'
p69
S'1237'
p70
ssasS'121351'
p71
(lp72
(dp73
S'new_policy'
p74
(dp75
S'msg'
p76
S'New policy created'
p77
sS'status'
p78
S'done'
p79
sS'type'
p80
g74
sS'corrid'
p81
S'121351'
p82
ssasS'121352'
p83
(lp84
(dp85
S'new_policy'
p86
(dp87
S'msg'
p88
S'New policy created'
p89
sS'status'
p90
S'done'
p91
sS'type'
p92
g86
sS'corrid'
p93
S'121352'
p94
ssasS'121353'
p95
(lp96
(dp97
S'new_policy'
p98
(dp99
S'msg'
p100
S'New policy created'
p101
sS'status'
p102
S'done'
p103
sS'type'
p104
g98
sS'corrid'
p105
S'121353'
p106
ssasS'121354'
p107
(lp108
(dp109
S'new_policy'
p110
(dp111
S'msg'
p112
S'New policy created'
p113
sS'status'
p114
S'done'
p115
sS'type'
p116
g110
sS'corrid'
p117
S'121354'
p118
ssasS'12134'
p119
(lp120
(dp121
S'approver_policy'
p122
(dp123
S'msg'
p124
S'approver policy created'
p125
sS'status'
p126
S'pending'
p127
sS'type'
p128
g122
sS'corrid'
p129
S'12134'
p130
ssa(dp131
S'new_policy'
p132
(dp133
S'msg'
p134
S'New policy created'
p135
sS'status'
p136
S'pending'
p137
sS'type'
p138
g132
sS'corrid'
p139
S'12134'
p140
ssa(dp141
S'apply_result'
p142
(dp143
S'msg'
p144
S'New policy created'
p145
sS'status'
p146
S'done'
p147
sS'type'
p148
g142
sS'corrid'
p149
S'12134'
p150
ssassS'pending'
p151
(dp152
S'1238'
p153
(lp154
(dp155
S'applier'
p156
(dp157
S'msg'
p158
S'New policy created'
p159
sS'status'
p160
S'pending'
p161
sS'type'
p162
g156
sS'corrid'
p163
g153
ssa(dp164
S'approver_policy'
p165
(dp166
S'msg'
p167
S'approver policy created'
p168
sS'status'
p169
S'pending'
p170
sS'type'
p171
g165
sS'corrid'
p172
S'1238'
p173
ssasS'1239'
p174
(lp175
(dp176
S'new_policy'
p177
(dp178
S'msg'
p179
S'New policy created'
p180
sS'status'
p181
S'pending'
p182
sS'type'
p183
g177
sS'corrid'
p184
g174
ssasS'12135'
p185
(lp186
(dp187
S'new_policy'
p188
(dp189
S'msg'
p190
S'New policy created'
p191
sS'status'
p192
S'pending'
p193
sS'type'
p194
g188
sS'corrid'
p195
g185
ssass.