(dp0
S'done'
p1
(dp2
V99992
p3
(lp4
(dp5
Vtest3
p6
(dp7
S'username'
p8
Vnavi
p9
sS'status'
p10
Vdone
p11
sS'ticket-num'
p12
Vsrno1
p13
sS'type'
p14
g6
sVPayload
p15
(dp16
Vsource
p17
V10.10.10.1
p18
sVdestination
p19
V10.172.2.1
p20
sVprotocol
p21
Vtcp
p22
sVport
p23
I22
sVinput-row-id
p24
I1
ssS'corrid'
p25
g3
ssasV9999999
p26
(lp27
(dp28
Vtest2
p29
(dp30
S'username'
p31
Vnavi
p32
sS'status'
p33
Vpending
p34
sS'ticket-num'
p35
Vsrno1
p36
sS'type'
p37
g29
sVPayload
p38
(dp39
Vsource
p40
V10.10.10.1
p41
sVdestination
p42
V10.172.2.1
p43
sVprotocol
p44
Vtcp
p45
sVport
p46
I22
sVinput-row-id
p47
I1
ssS'corrid'
p48
V9999999
p49
ssa(dp50
Vtest3
p51
(dp52
S'username'
p53
Vnavi
p54
sS'status'
p55
Vpending
p56
sS'ticket-num'
p57
Vsrno1
p58
sS'type'
p59
g51
sVPayload
p60
(dp61
Vsource
p62
V10.10.10.1
p63
sVdestination
p64
V10.172.2.1
p65
sVprotocol
p66
Vtcp
p67
sVport
p68
I22
sVinput-row-id
p69
I1
ssS'corrid'
p70
V9999999
p71
ssa(dp72
Vtest4
p73
(dp74
S'username'
p75
Vnavi
p76
sS'status'
p77
Vpending
p78
sS'ticket-num'
p79
Vsrno1
p80
sS'type'
p81
g73
sVPayload
p82
(dp83
Vsource
p84
V10.10.10.1
p85
sVdestination
p86
V10.172.2.1
p87
sVprotocol
p88
Vtcp
p89
sVport
p90
I22
sVinput-row-id
p91
I1
ssS'corrid'
p92
V9999999
p93
ssa(dp94
Vtest4
p95
(dp96
S'username'
p97
Vnavi
p98
sS'status'
p99
Vdone
p100
sS'ticket-num'
p101
Vsrno1
p102
sS'type'
p103
g95
sVPayload
p104
(dp105
Vsource
p106
V10.10.10.1
p107
sVdestination
p108
V10.172.2.1
p109
sVprotocol
p110
Vtcp
p111
sVport
p112
I22
sVinput-row-id
p113
I1
ssS'corrid'
p114
g26
ssasV14
p115
(lp116
(dp117
Vtest2
p118
(dp119
S'username'
p120
Vnavi
p121
sS'status'
p122
Vdone
p123
sS'ticket-num'
p124
Vsrno1
p125
sS'type'
p126
g118
sVPayload
p127
(dp128
Vsource
p129
V10.10.10.1
p130
sVdestination
p131
V10.172.2.1
p132
sVprotocol
p133
Vtcp
p134
sVport
p135
I22
sVinput-row-id
p136
I1
ssS'corrid'
p137
V14
p138
ssassS'pending'
p139
(dp140
V10
p141
(lp142
(dp143
Vtest3
p144
(dp145
S'username'
p146
Vnavi
p147
sS'status'
p148
Vpending
p149
sS'ticket-num'
p150
Vsrno1
p151
sS'type'
p152
g144
sVPayload
p153
(dp154
Vsource
p155
V10.10.10.1
p156
sVdestination
p157
V10.172.2.1
p158
sVprotocol
p159
Vtcp
p160
sVport
p161
I22
sVinput-row-id
p162
I1
ssS'corrid'
p163
g141
ssasV13
p164
(lp165
(dp166
Vtest2
p167
(dp168
S'username'
p169
Vnavi
p170
sS'status'
p171
Vpending
p172
sS'ticket-num'
p173
Vsrno1
p174
sS'type'
p175
g167
sVPayload
p176
(dp177
Vsource
p178
V10.10.10.1
p179
sVdestination
p180
V10.172.2.1
p181
sVprotocol
p182
Vtcp
p183
sVport
p184
I22
sVinput-row-id
p185
I1
ssS'corrid'
p186
g164
ssass.